target datalayout = "e-m:e-p270:32:32-p271:32:32-p272:64:64-i64:64-i128:128-f80:128-n8:16:32:64-S128"
target triple = "x86_64-pc-linux-gnu"

@.str.725 = private unnamed_addr constant [3 x i8] c"%f\00", align 1

; Function Attrs: nounwind null_pointer_is_valid sspstrong uwtable
define internal float @degrees_convert_fixed_to_float(i32 noundef %0) #4 {
  %2 = alloca float, align 4
  %3 = alloca i32, align 4
  store i32 %0, ptr %3, align 4
  %4 = load i32, ptr %3, align 4
  %5 = icmp ne i32 %4, 0
  br i1 %5, label %7, label %6

6:                                                ; preds = %1
  store float 0.000000e+00, ptr %2, align 4
  br label %18

7:                                                ; preds = %1
  %8 = load i32, ptr %3, align 4
  %9 = and i32 %8, 8388608
  %10 = icmp ne i32 %9, 0
  br i1 %10, label %11, label %14

11:                                               ; preds = %7
  %12 = load i32, ptr %3, align 4
  %13 = or i32 %12, -16777216
  store i32 %13, ptr %3, align 4
  br label %14

14:                                               ; preds = %11, %7
  %15 = load i32, ptr %3, align 4
  %16 = sitofp i32 %15 to float
  %17 = fdiv float %16, 3.276800e+04
  store float %17, ptr %2, align 4
  br label %18

18:                                               ; preds = %14, %6
  %19 = load float, ptr %2, align 4
  ret float %19
}

; Function Attrs: null_pointer_is_valid sspstrong uwtable
define internal void @degrees_base_custom(ptr noundef %0, i32 noundef %1) #0 {
  %3 = alloca ptr, align 8
  %4 = alloca i32, align 4
  store ptr %0, ptr %3, align 8
  store i32 %1, ptr %4, align 4
  %5 = load ptr, ptr %3, align 8
  %6 = load ptr, ptr %3, align 8
  %7 = call i64 @llvm.objectsize.i64.p0(ptr %6, i1 false, i1 true, i1 true)
  %8 = load i32, ptr %4, align 4
  %9 = call float @degrees_convert_fixed_to_float(i32 noundef %8)
  %10 = fpext float %9 to double
  %11 = call i32 (ptr, i64, i32, i64, ptr, ...) @__snprintf_chk(ptr noundef %5, i64 noundef 240, i32 noundef 2, i64 noundef %7, ptr noundef @.str.725, double noundef %10)
  ret void
}