; Function Attrs: nofree null_pointer_is_valid sspstrong uwtable
define internal void @degrees_base_custom(ptr noundef %0, i32 noundef %1) #2 {
  %.not.i = icmp eq i32 %1, 0
  br i1 %.not.i, label %degrees_convert_fixed_to_float.exit, label %3

3:                                                ; preds = %2
  %4 = and i32 %1, 8388608
  %.not6.i = icmp eq i32 %4, 0
  %5 = or i32 %1, -16777216
  %spec.select.i = select i1 %.not6.i, i32 %1, i32 %5
  %6 = sitofp i32 %spec.select.i to float
  %7 = fmul float %6, 0x3F00000000000000
  %8 = fpext float %7 to double
  br label %degrees_convert_fixed_to_float.exit

degrees_convert_fixed_to_float.exit:              ; preds = %2, %3
  %.04.i = phi double [ %8, %3 ], [ 0.000000e+00, %2 ]
  %9 = tail call i32 (ptr, i64, i32, i64, ptr, ...) @__snprintf_chk(ptr noundef %0, i64 noundef 240, i32 noundef 2, i64 noundef -1, ptr noundef nonnull @.str.725, double noundef %.04.i)
  ret void
}